target datalayout = "e-m:e-p270:32:32-p271:32:32-p272:64:64-i64:64-i128:128-f80:128-n8:16:32:64-S128"
target triple = "x86_64-pc-linux-gnu"

%struct.Gia_Man_t_ = type { ptr, ptr, i32, i32, i32, i32, ptr, ptr, i32, i32, i32, ptr, ptr, %struct.Vec_Int_t_, %struct.Vec_Int_t_, i32, i32, i32, %struct.Vec_Int_t_, ptr, ptr, ptr, i32, i32, i32, i32, ptr, ptr, ptr, ptr, ptr, i32, i32, ptr, i32, ptr, ptr, ptr, ptr, ptr, ptr, ptr, ptr, ptr, ptr, ptr, ptr, ptr, ptr, ptr, ptr, ptr, ptr, %struct.Vec_Int_t_, %struct.Vec_Int_t_, ptr, ptr, ptr, ptr, ptr, ptr, ptr, ptr, ptr, ptr, ptr, ptr, ptr, ptr, ptr, ptr, ptr, ptr, ptr, ptr, ptr, i32, float, float, ptr, ptr, i32, ptr, ptr, ptr, ptr, ptr, ptr, ptr, ptr, ptr, ptr, ptr, ptr, ptr, ptr, ptr, i64, i64, ptr, ptr, i32, i32, i32, i32, i32, i32, i32, i32, i32, i32, i32, i32, ptr, ptr, ptr, ptr, ptr, ptr, ptr, ptr, i32, i32, i32, ptr, i32, i32, ptr, ptr, ptr, ptr, ptr, ptr, i32, i32, ptr, %struct.Vec_Int_t_, %struct.Vec_Int_t_, %struct.Vec_Int_t_, ptr, ptr, ptr, i32, i32, i32, i32, ptr, ptr, ptr, ptr, ptr }
%struct.Vec_Int_t_ = type { i32, i32, ptr }

; Function Attrs: inlinehint nounwind uwtable
define internal i32 @Gia_ManHasMapping(ptr noundef %0) #2 {
  %2 = alloca ptr, align 8
  store ptr %0, ptr %2, align 8, !tbaa !3
  %3 = load ptr, ptr %2, align 8, !tbaa !3
  %4 = getelementptr inbounds nuw %struct.Gia_Man_t_, ptr %3, i32 0, i32 37
  %5 = load ptr, ptr %4, align 8, !tbaa !113
  %6 = icmp ne ptr %5, null
  %7 = zext i1 %6 to i32
  ret i32 %7
}

; Function Attrs: nounwind uwtable
define ptr @Gia_ManPerformDch(ptr noundef %0, ptr noundef %1) #0 {
  %3 = alloca ptr, align 8
  %4 = alloca ptr, align 8
  %5 = alloca i32, align 4
  %6 = alloca ptr, align 8
  %7 = alloca ptr, align 8
  %8 = alloca ptr, align 8
  store ptr %0, ptr %3, align 8, !tbaa !3
  store ptr %1, ptr %4, align 8, !tbaa !68
  call void @llvm.lifetime.start.p0(i64 4, ptr %5) #12
  store i32 0, ptr %5, align 4, !tbaa !26
  call void @llvm.lifetime.start.p0(i64 8, ptr %6) #12
  call void @llvm.lifetime.start.p0(i64 8, ptr %7) #12
  call void @llvm.lifetime.start.p0(i64 8, ptr %8) #12
  %9 = load ptr, ptr %3, align 8, !tbaa !3
  %10 = getelementptr inbounds nuw %struct.Gia_Man_t_, ptr %9, i32 0, i32 95
  %11 = load ptr, ptr %10, align 8, !tbaa !108
  %12 = icmp ne ptr %11, null
  br i1 %12, label %13, label %21

13:                                               ; preds = %2
  %14 = load ptr, ptr %3, align 8, !tbaa !3
  %15 = getelementptr inbounds nuw %struct.Gia_Man_t_, ptr %14, i32 0, i32 21
  %16 = load ptr, ptr %15, align 8, !tbaa !89
  %17 = icmp eq ptr %16, null
  br i1 %17, label %18, label %21

18:                                               ; preds = %13
  %19 = load ptr, ptr %3, align 8, !tbaa !3
  %20 = call i32 @Gia_ManLevelWithBoxes(ptr noundef %19)
  br label %21

21:                                               ; preds = %18, %13, %2
  %22 = load i32, ptr %5, align 4, !tbaa !26
  %23 = icmp ne i32 %22, 0
  br i1 %23, label %24, label %31

24:                                               ; preds = %21
  %25 = load ptr, ptr %3, align 8, !tbaa !3
  %26 = call i32 @Gia_ManHasMapping(ptr noundef %25)
  %27 = icmp ne i32 %26, 0
  br i1 %27, label %28, label %31

28:                                               ; preds = %24
  %29 = load ptr, ptr %3, align 8, !tbaa !3
  %30 = call ptr @Dsm_ManDeriveGia(ptr noundef %29, i32 noundef 0)
  store ptr %30, ptr %7, align 8, !tbaa !3
  br label %34

31:                                               ; preds = %24, %21
  %32 = load ptr, ptr %3, align 8, !tbaa !3
  %33 = call ptr @Gia_ManDup(ptr noundef %32)
  store ptr %33, ptr %7, align 8, !tbaa !3
  br label %34

34:                                               ; preds = %31, %28
  %35 = load ptr, ptr %7, align 8, !tbaa !3
  %36 = call ptr @Gia_ManToAig(ptr noundef %35, i32 noundef 0)
  store ptr %36, ptr %8, align 8, !tbaa !8
  %37 = load ptr, ptr %7, align 8, !tbaa !3
  call void @Gia_ManStop(ptr noundef %37)
  %38 = load ptr, ptr %8, align 8, !tbaa !8
  %39 = load ptr, ptr %4, align 8, !tbaa !68
  %40 = call ptr @Dar_ManChoiceNew(ptr noundef %38, ptr noundef %39)
  store ptr %40, ptr %8, align 8, !tbaa !8
  %41 = load ptr, ptr %8, align 8, !tbaa !8
  %42 = call ptr @Gia_ManFromAigChoices(ptr noundef %41)
  store ptr %42, ptr %6, align 8, !tbaa !3
  %43 = load ptr, ptr %8, align 8, !tbaa !8
  call void @Aig_ManStop(ptr noundef %43)
  %44 = load ptr, ptr %3, align 8, !tbaa !3
  %45 = getelementptr inbounds nuw %struct.Gia_Man_t_, ptr %44, i32 0, i32 95
  %46 = load ptr, ptr %45, align 8, !tbaa !108
  %47 = icmp ne ptr %46, null
  br i1 %47, label %56, label %48

48:                                               ; preds = %34
  %49 = load ptr, ptr %6, align 8, !tbaa !3
  %50 = call i32 @Gia_ManTestChoices(ptr noundef %49)
  %51 = icmp ne i32 %50, 0
  br i1 %51, label %56, label %52

52:                                               ; preds = %48
  %53 = load ptr, ptr %6, align 8, !tbaa !3
  call void @Gia_ManStop(ptr noundef %53)
  %54 = load ptr, ptr %3, align 8, !tbaa !3
  %55 = call ptr @Gia_ManDup(ptr noundef %54)
  store ptr %55, ptr %6, align 8, !tbaa !3
  br label %56

56:                                               ; preds = %52, %48, %34
  %57 = load ptr, ptr %6, align 8, !tbaa !3
  %58 = load ptr, ptr %3, align 8, !tbaa !3
  call void @Gia_ManTransferTiming(ptr noundef %57, ptr noundef %58)
  %59 = load ptr, ptr %6, align 8, !tbaa !3
  call void @llvm.lifetime.end.p0(i64 8, ptr %8) #12
  call void @llvm.lifetime.end.p0(i64 8, ptr %7) #12
  call void @llvm.lifetime.end.p0(i64 8, ptr %6) #12
  call void @llvm.lifetime.end.p0(i64 4, ptr %5) #12
  ret ptr %59
}