; Function Attrs: nounwind uwtable
define noundef ptr @Gia_ManPerformDch(ptr noundef %0, ptr noundef %1) local_unnamed_addr #0 {
  %3 = getelementptr inbounds nuw i8, ptr %0, i64 736
  %4 = load ptr, ptr %3, align 8, !tbaa !104
  %.not = icmp eq ptr %4, null
  br i1 %.not, label %11, label %5

5:                                                ; preds = %2
  %6 = getelementptr inbounds nuw i8, ptr %0, i64 160
  %7 = load ptr, ptr %6, align 8, !tbaa !84
  %8 = icmp eq ptr %7, null
  br i1 %8, label %9, label %11

9:                                                ; preds = %5
  %10 = tail call i32 @Gia_ManLevelWithBoxes(ptr noundef nonnull %0) #17
  br label %11

11:                                               ; preds = %2, %5, %9
  %12 = tail call ptr @Gia_ManDup(ptr noundef nonnull %0) #17
  %13 = tail call ptr @Gia_ManToAig(ptr noundef %12, i32 noundef 0)
  tail call void @Gia_ManStop(ptr noundef %12) #17
  %14 = tail call ptr @Dar_ManChoiceNew(ptr noundef %13, ptr noundef %1) #17
  %15 = tail call ptr @Gia_ManFromAigChoices(ptr noundef %14)
  tail call void @Aig_ManStop(ptr noundef %14) #17
  %16 = load ptr, ptr %3, align 8, !tbaa !104
  %.not20 = icmp eq ptr %16, null
  br i1 %.not20, label %17, label %21

17:                                               ; preds = %11
  %18 = tail call i32 @Gia_ManTestChoices(ptr noundef %15)
  %.not21 = icmp eq i32 %18, 0
  br i1 %.not21, label %19, label %21

19:                                               ; preds = %17
  tail call void @Gia_ManStop(ptr noundef %15) #17
  %20 = tail call ptr @Gia_ManDup(ptr noundef nonnull %0) #17
  br label %21

21:                                               ; preds = %19, %17, %11
  %.0 = phi ptr [ %15, %11 ], [ %15, %17 ], [ %20, %19 ]
  tail call void @Gia_ManTransferTiming(ptr noundef %.0, ptr noundef nonnull %0) #17
  ret ptr %.0
}